target datalayout = "e-m:e-p270:32:32-p271:32:32-p272:64:64-i64:64-i128:128-f80:128-n8:16:32:64-S128"
target triple = "x86_64-pc-linux-gnu"

%struct.prov_cipher_ctx_st = type { [16 x i8], [16 x i8], [16 x i8], ptr, %union.anon, i32, i64, i64, i64, i64, i32, i8, i32, ptr, i32, i64, i32, i64, i32, ptr, ptr, ptr }
%union.anon = type { ptr }
%union.aligned_16bytes = type { i64, [8 x i8] }
%struct.prov_cipher_hw_st = type { ptr, ptr, ptr }

; Function Attrs: nounwind uwtable
define internal i64 @cts128_cs1_encrypt(ptr noundef %0, ptr noundef %1, ptr noundef %2, i64 noundef %3) #0 {
  %5 = alloca i64, align 8
  %6 = alloca ptr, align 8
  %7 = alloca ptr, align 8
  %8 = alloca ptr, align 8
  %9 = alloca i64, align 8
  %10 = alloca %union.aligned_16bytes, align 8
  %11 = alloca i64, align 8
  %12 = alloca i32, align 4
  store ptr %0, ptr %6, align 8, !tbaa !21
  store ptr %1, ptr %7, align 8, !tbaa !16
  store ptr %2, ptr %8, align 8, !tbaa !16
  store i64 %3, ptr %9, align 8, !tbaa !7
  call void @llvm.lifetime.start.p0(i64 16, ptr %10) #5
  call void @llvm.lifetime.start.p0(i64 8, ptr %11) #5
  %13 = load i64, ptr %9, align 8, !tbaa !7
  %14 = urem i64 %13, 16
  store i64 %14, ptr %11, align 8, !tbaa !7
  %15 = load i64, ptr %11, align 8, !tbaa !7
  %16 = load i64, ptr %9, align 8, !tbaa !7
  %17 = sub i64 %16, %15
  store i64 %17, ptr %9, align 8, !tbaa !7
  %18 = load ptr, ptr %6, align 8, !tbaa !21
  %19 = getelementptr inbounds nuw %struct.prov_cipher_ctx_st, ptr %18, i32 0, i32 19
  %20 = load ptr, ptr %19, align 8, !tbaa !27
  %21 = getelementptr inbounds nuw %struct.prov_cipher_hw_st, ptr %20, i32 0, i32 1
  %22 = load ptr, ptr %21, align 8, !tbaa !28
  %23 = load ptr, ptr %6, align 8, !tbaa !21
  %24 = load ptr, ptr %8, align 8, !tbaa !16
  %25 = load ptr, ptr %7, align 8, !tbaa !16
  %26 = load i64, ptr %9, align 8, !tbaa !7
  %27 = call i32 %22(ptr noundef %23, ptr noundef %24, ptr noundef %25, i64 noundef %26)
  %28 = icmp ne i32 %27, 0
  br i1 %28, label %30, label %29

29:                                               ; preds = %4
  store i64 0, ptr %5, align 8
  store i32 1, ptr %12, align 4
  br label %64

30:                                               ; preds = %4
  %31 = load i64, ptr %11, align 8, !tbaa !7
  %32 = icmp eq i64 %31, 0
  br i1 %32, label %33, label %35

33:                                               ; preds = %30
  %34 = load i64, ptr %9, align 8, !tbaa !7
  store i64 %34, ptr %5, align 8
  store i32 1, ptr %12, align 4
  br label %64

35:                                               ; preds = %30
  %36 = load i64, ptr %9, align 8, !tbaa !7
  %37 = load ptr, ptr %7, align 8, !tbaa !16
  %38 = getelementptr inbounds nuw i8, ptr %37, i64 %36
  store ptr %38, ptr %7, align 8, !tbaa !16
  %39 = load i64, ptr %9, align 8, !tbaa !7
  %40 = load ptr, ptr %8, align 8, !tbaa !16
  %41 = getelementptr inbounds nuw i8, ptr %40, i64 %39
  store ptr %41, ptr %8, align 8, !tbaa !16
  %42 = getelementptr inbounds [16 x i8], ptr %10, i64 0, i64 0
  call void @llvm.memset.p0.i64(ptr align 8 %42, i8 0, i64 16, i1 false)
  %43 = getelementptr inbounds [16 x i8], ptr %10, i64 0, i64 0
  %44 = load ptr, ptr %7, align 8, !tbaa !16
  %45 = load i64, ptr %11, align 8, !tbaa !7
  call void @llvm.memcpy.p0.p0.i64(ptr align 8 %43, ptr align 1 %44, i64 %45, i1 false)
  %46 = load ptr, ptr %6, align 8, !tbaa !21
  %47 = getelementptr inbounds nuw %struct.prov_cipher_ctx_st, ptr %46, i32 0, i32 19
  %48 = load ptr, ptr %47, align 8, !tbaa !27
  %49 = getelementptr inbounds nuw %struct.prov_cipher_hw_st, ptr %48, i32 0, i32 1
  %50 = load ptr, ptr %49, align 8, !tbaa !28
  %51 = load ptr, ptr %6, align 8, !tbaa !21
  %52 = load ptr, ptr %8, align 8, !tbaa !16
  %53 = getelementptr inbounds i8, ptr %52, i64 -16
  %54 = load i64, ptr %11, align 8, !tbaa !7
  %55 = getelementptr inbounds nuw i8, ptr %53, i64 %54
  %56 = getelementptr inbounds [16 x i8], ptr %10, i64 0, i64 0
  %57 = call i32 %50(ptr noundef %51, ptr noundef %55, ptr noundef %56, i64 noundef 16)
  %58 = icmp ne i32 %57, 0
  br i1 %58, label %60, label %59

59:                                               ; preds = %35
  store i64 0, ptr %5, align 8
  store i32 1, ptr %12, align 4
  br label %64

60:                                               ; preds = %35
  %61 = load i64, ptr %9, align 8, !tbaa !7
  %62 = load i64, ptr %11, align 8, !tbaa !7
  %63 = add i64 %61, %62
  store i64 %63, ptr %5, align 8
  store i32 1, ptr %12, align 4
  br label %64

64:                                               ; preds = %60, %59, %33, %29
  call void @llvm.lifetime.end.p0(i64 8, ptr %11) #5
  call void @llvm.lifetime.end.p0(i64 16, ptr %10) #5
  %65 = load i64, ptr %5, align 8
  ret i64 %65
}