; Function Attrs: nounwind uwtable
define internal fastcc range(i64 16, 1) i64 @cts128_cs1_encrypt(ptr noundef %0, ptr noundef %1, ptr noundef nonnull %2, i64 noundef range(i64 16, 0) %3) unnamed_addr #2 {
  %5 = alloca %union.aligned_16bytes, align 8
  call void @llvm.lifetime.start.p0(i64 16, ptr nonnull %5) #7
  %6 = and i64 %3, 15
  %7 = and i64 %3, -16
  %8 = getelementptr inbounds nuw i8, ptr %0, i64 168
  %9 = load ptr, ptr %8, align 8, !tbaa !20
  %10 = getelementptr inbounds nuw i8, ptr %9, i64 8
  %11 = load ptr, ptr %10, align 8, !tbaa !21
  %12 = tail call i32 %11(ptr noundef %0, ptr noundef nonnull %2, ptr noundef %1, i64 noundef %7) #7
  %.not = icmp eq i32 %12, 0
  br i1 %.not, label %26, label %13

13:                                               ; preds = %4
  %14 = icmp eq i64 %6, 0
  br i1 %14, label %26, label %15

15:                                               ; preds = %13
  %16 = getelementptr inbounds nuw i8, ptr %1, i64 %7
  %17 = getelementptr inbounds nuw i8, ptr %2, i64 %7
  %18 = sub nuw nsw i64 16, %6
  %19 = getelementptr i8, ptr %5, i64 %6
  call void @llvm.memset.p0.i64(ptr noundef nonnull align 1 dereferenceable(1) %19, i8 0, i64 %18, i1 false)
  call void @llvm.memcpy.p0.p0.i64(ptr nonnull align 8 %5, ptr align 1 %16, i64 %6, i1 false)
  %20 = load ptr, ptr %8, align 8, !tbaa !20
  %21 = getelementptr inbounds nuw i8, ptr %20, i64 8
  %22 = load ptr, ptr %21, align 8, !tbaa !21
  %23 = getelementptr inbounds i8, ptr %17, i64 -16
  %24 = getelementptr inbounds nuw i8, ptr %23, i64 %6
  %25 = call i32 %22(ptr noundef nonnull %0, ptr noundef nonnull %24, ptr noundef nonnull %5, i64 noundef 16) #7
  %.not23 = icmp eq i32 %25, 0
  %. = select i1 %.not23, i64 0, i64 %3
  br label %26

26:                                               ; preds = %15, %13, %4
  %.0 = phi i64 [ 0, %4 ], [ %7, %13 ], [ %., %15 ]
  call void @llvm.lifetime.end.p0(i64 16, ptr nonnull %5) #7
  ret i64 %.0
}